target datalayout = "e-m:e-p270:32:32-p271:32:32-p272:64:64-i64:64-i128:128-f80:128-n8:16:32:64-S128"
target triple = "x86_64-pc-linux-gnu"

%struct.mbedtls_mpi = type { ptr, i16, i16 }

; Function Attrs: nounwind uwtable
define internal i32 @ecp_mod_p255(ptr noundef %0) #0 {
  %2 = alloca i32, align 4
  %3 = alloca ptr, align 8
  %4 = alloca [4 x i64], align 16
  %5 = alloca ptr, align 8
  %6 = alloca i64, align 8
  %7 = alloca i32, align 4
  store ptr %0, ptr %3, align 8, !tbaa !19
  call void @llvm.lifetime.start.p0(i64 32, ptr %4) #6
  call void @llvm.lifetime.start.p0(i64 8, ptr %5) #6
  %8 = load ptr, ptr %3, align 8, !tbaa !19
  %9 = getelementptr inbounds nuw %struct.mbedtls_mpi, ptr %8, i32 0, i32 0
  %10 = load ptr, ptr %9, align 8, !tbaa !22
  %11 = getelementptr inbounds nuw i64, ptr %10, i64 4
  store ptr %11, ptr %5, align 8, !tbaa !23
  call void @llvm.lifetime.start.p0(i64 8, ptr %6) #6
  %12 = load ptr, ptr %3, align 8, !tbaa !19
  %13 = getelementptr inbounds nuw %struct.mbedtls_mpi, ptr %12, i32 0, i32 2
  %14 = load i16, ptr %13, align 2, !tbaa !24
  %15 = zext i16 %14 to i64
  %16 = sub i64 %15, 4
  store i64 %16, ptr %6, align 8, !tbaa !21
  %17 = load ptr, ptr %3, align 8, !tbaa !19
  %18 = getelementptr inbounds nuw %struct.mbedtls_mpi, ptr %17, i32 0, i32 2
  %19 = load i16, ptr %18, align 2, !tbaa !24
  %20 = zext i16 %19 to i64
  %21 = icmp ule i64 %20, 4
  br i1 %21, label %22, label %23

22:                                               ; preds = %1
  store i32 0, ptr %2, align 4
  store i32 1, ptr %7, align 4
  br label %41

23:                                               ; preds = %1
  %24 = load i64, ptr %6, align 8, !tbaa !21
  %25 = icmp ugt i64 %24, 4
  br i1 %25, label %26, label %27

26:                                               ; preds = %23
  store i32 -20352, ptr %2, align 4
  store i32 1, ptr %7, align 4
  br label %41

27:                                               ; preds = %23
  %28 = getelementptr inbounds [4 x i64], ptr %4, i64 0, i64 0
  %29 = load ptr, ptr %5, align 8, !tbaa !23
  %30 = load i64, ptr %6, align 8, !tbaa !21
  %31 = mul i64 8, %30
  call void @llvm.memcpy.p0.p0.i64(ptr align 16 %28, ptr align 8 %29, i64 %31, i1 false)
  %32 = load ptr, ptr %5, align 8, !tbaa !23
  %33 = load i64, ptr %6, align 8, !tbaa !21
  %34 = mul i64 8, %33
  call void @llvm.memset.p0.i64(ptr align 8 %32, i8 0, i64 %34, i1 false)
  %35 = load ptr, ptr %3, align 8, !tbaa !19
  %36 = getelementptr inbounds nuw %struct.mbedtls_mpi, ptr %35, i32 0, i32 0
  %37 = load ptr, ptr %36, align 8, !tbaa !22
  %38 = getelementptr inbounds [4 x i64], ptr %4, i64 0, i64 0
  %39 = load i64, ptr %6, align 8, !tbaa !21
  %40 = call i64 @mbedtls_mpi_core_mla(ptr noundef %37, i64 noundef 5, ptr noundef %38, i64 noundef %39, i64 noundef 38)
  store i32 0, ptr %2, align 4
  store i32 1, ptr %7, align 4
  br label %41

41:                                               ; preds = %27, %26, %22
  call void @llvm.lifetime.end.p0(i64 8, ptr %6) #6
  call void @llvm.lifetime.end.p0(i64 8, ptr %5) #6
  call void @llvm.lifetime.end.p0(i64 32, ptr %4) #6
  %42 = load i32, ptr %2, align 4
  ret i32 %42
}