; Function Attrs: nounwind uwtable
define internal range(i32 -20352, 1) i32 @ecp_mod_p255(ptr noundef readonly captures(none) %0) #0 {
  %2 = alloca [4 x i64], align 16
  call void @llvm.lifetime.start.p0(i64 32, ptr nonnull %2) #7
  %3 = load ptr, ptr %0, align 8, !tbaa !18
  %4 = getelementptr inbounds nuw i8, ptr %3, i64 32
  %5 = getelementptr inbounds nuw i8, ptr %0, i64 10
  %6 = load i16, ptr %5, align 2, !tbaa !17
  %7 = zext i16 %6 to i64
  %8 = add nsw i64 %7, -4
  %9 = icmp ult i16 %6, 5
  br i1 %9, label %16, label %10

10:                                               ; preds = %1
  %11 = icmp ugt i64 %8, 4
  br i1 %11, label %16, label %12

12:                                               ; preds = %10
  %13 = shl nuw nsw i64 %8, 3
  call void @llvm.memcpy.p0.p0.i64(ptr nonnull align 16 %2, ptr nonnull align 8 %4, i64 %13, i1 false)
  tail call void @llvm.memset.p0.i64(ptr nonnull align 8 %4, i8 0, i64 %13, i1 false)
  %14 = load ptr, ptr %0, align 8, !tbaa !18
  %15 = call i64 @mbedtls_mpi_core_mla(ptr noundef %14, i64 noundef 5, ptr noundef nonnull %2, i64 noundef %8, i64 noundef 38) #7
  br label %16

16:                                               ; preds = %10, %1, %12
  %.0 = phi i32 [ 0, %12 ], [ 0, %1 ], [ -20352, %10 ]
  call void @llvm.lifetime.end.p0(i64 32, ptr nonnull %2) #7
  ret i32 %.0
}